target datalayout = "e-m:e-p270:32:32-p271:32:32-p272:64:64-i64:64-i128:128-f80:128-n8:16:32:64-S128"
target triple = "x86_64-pc-linux-gnu"

; Function Attrs: nounwind uwtable
define internal void @diag_downright_8x8_c(ptr noundef %0, i64 noundef %1, ptr noundef %2, ptr noundef %3) #1 {
  %5 = alloca ptr, align 8
  %6 = alloca i64, align 8
  %7 = alloca ptr, align 8
  %8 = alloca ptr, align 8
  %9 = alloca ptr, align 8
  %10 = alloca ptr, align 8
  %11 = alloca ptr, align 8
  %12 = alloca i32, align 4
  %13 = alloca i32, align 4
  %14 = alloca [15 x i8], align 1
  store ptr %0, ptr %5, align 8, !tbaa !10
  store i64 %1, ptr %6, align 8, !tbaa !12
  store ptr %2, ptr %7, align 8, !tbaa !10
  store ptr %3, ptr %8, align 8, !tbaa !10
  call void @llvm.lifetime.start.p0(i64 8, ptr %9) #10
  %15 = load ptr, ptr %5, align 8, !tbaa !10
  store ptr %15, ptr %9, align 8, !tbaa !10
  call void @llvm.lifetime.start.p0(i64 8, ptr %10) #10
  %16 = load ptr, ptr %8, align 8, !tbaa !10
  store ptr %16, ptr %10, align 8, !tbaa !10
  call void @llvm.lifetime.start.p0(i64 8, ptr %11) #10
  %17 = load ptr, ptr %7, align 8, !tbaa !10
  store ptr %17, ptr %11, align 8, !tbaa !10
  call void @llvm.lifetime.start.p0(i64 4, ptr %12) #10
  call void @llvm.lifetime.start.p0(i64 4, ptr %13) #10
  call void @llvm.lifetime.start.p0(i64 15, ptr %14) #10
  %18 = load i64, ptr %6, align 8, !tbaa !12
  %19 = udiv i64 %18, 1
  store i64 %19, ptr %6, align 8, !tbaa !12
  store i32 0, ptr %12, align 4, !tbaa !15
  br label %20

20:                                               ; preds = %83, %4
  %21 = load i32, ptr %12, align 4, !tbaa !15
  %22 = icmp slt i32 %21, 6
  br i1 %22, label %23, label %86

23:                                               ; preds = %20
  %24 = load ptr, ptr %11, align 8, !tbaa !10
  %25 = load i32, ptr %12, align 4, !tbaa !15
  %26 = sext i32 %25 to i64
  %27 = getelementptr inbounds i8, ptr %24, i64 %26
  %28 = load i8, ptr %27, align 1, !tbaa !14
  %29 = zext i8 %28 to i32
  %30 = load ptr, ptr %11, align 8, !tbaa !10
  %31 = load i32, ptr %12, align 4, !tbaa !15
  %32 = add nsw i32 %31, 1
  %33 = sext i32 %32 to i64
  %34 = getelementptr inbounds i8, ptr %30, i64 %33
  %35 = load i8, ptr %34, align 1, !tbaa !14
  %36 = zext i8 %35 to i32
  %37 = mul nsw i32 %36, 2
  %38 = add nsw i32 %29, %37
  %39 = load ptr, ptr %11, align 8, !tbaa !10
  %40 = load i32, ptr %12, align 4, !tbaa !15
  %41 = add nsw i32 %40, 2
  %42 = sext i32 %41 to i64
  %43 = getelementptr inbounds i8, ptr %39, i64 %42
  %44 = load i8, ptr %43, align 1, !tbaa !14
  %45 = zext i8 %44 to i32
  %46 = add nsw i32 %38, %45
  %47 = add nsw i32 %46, 2
  %48 = ashr i32 %47, 2
  %49 = trunc i32 %48 to i8
  %50 = load i32, ptr %12, align 4, !tbaa !15
  %51 = sext i32 %50 to i64
  %52 = getelementptr inbounds [15 x i8], ptr %14, i64 0, i64 %51
  store i8 %49, ptr %52, align 1, !tbaa !14
  %53 = load ptr, ptr %10, align 8, !tbaa !10
  %54 = load i32, ptr %12, align 4, !tbaa !15
  %55 = sext i32 %54 to i64
  %56 = getelementptr inbounds i8, ptr %53, i64 %55
  %57 = load i8, ptr %56, align 1, !tbaa !14
  %58 = zext i8 %57 to i32
  %59 = load ptr, ptr %10, align 8, !tbaa !10
  %60 = load i32, ptr %12, align 4, !tbaa !15
  %61 = add nsw i32 %60, 1
  %62 = sext i32 %61 to i64
  %63 = getelementptr inbounds i8, ptr %59, i64 %62
  %64 = load i8, ptr %63, align 1, !tbaa !14
  %65 = zext i8 %64 to i32
  %66 = mul nsw i32 %65, 2
  %67 = add nsw i32 %58, %66
  %68 = load ptr, ptr %10, align 8, !tbaa !10
  %69 = load i32, ptr %12, align 4, !tbaa !15
  %70 = add nsw i32 %69, 2
  %71 = sext i32 %70 to i64
  %72 = getelementptr inbounds i8, ptr %68, i64 %71
  %73 = load i8, ptr %72, align 1, !tbaa !14
  %74 = zext i8 %73 to i32
  %75 = add nsw i32 %67, %74
  %76 = add nsw i32 %75, 2
  %77 = ashr i32 %76, 2
  %78 = trunc i32 %77 to i8
  %79 = load i32, ptr %12, align 4, !tbaa !15
  %80 = add nsw i32 9, %79
  %81 = sext i32 %80 to i64
  %82 = getelementptr inbounds [15 x i8], ptr %14, i64 0, i64 %81
  store i8 %78, ptr %82, align 1, !tbaa !14
  br label %83

83:                                               ; preds = %23
  %84 = load i32, ptr %12, align 4, !tbaa !15
  %85 = add nsw i32 %84, 1
  store i32 %85, ptr %12, align 4, !tbaa !15
  br label %20, !llvm.loop !24

86:                                               ; preds = %20
  %87 = load ptr, ptr %11, align 8, !tbaa !10
  %88 = getelementptr inbounds i8, ptr %87, i64 6
  %89 = load i8, ptr %88, align 1, !tbaa !14
  %90 = zext i8 %89 to i32
  %91 = load ptr, ptr %11, align 8, !tbaa !10
  %92 = getelementptr inbounds i8, ptr %91, i64 7
  %93 = load i8, ptr %92, align 1, !tbaa !14
  %94 = zext i8 %93 to i32
  %95 = mul nsw i32 %94, 2
  %96 = add nsw i32 %90, %95
  %97 = load ptr, ptr %10, align 8, !tbaa !10
  %98 = getelementptr inbounds i8, ptr %97, i64 -1
  %99 = load i8, ptr %98, align 1, !tbaa !14
  %100 = zext i8 %99 to i32
  %101 = add nsw i32 %96, %100
  %102 = add nsw i32 %101, 2
  %103 = ashr i32 %102, 2
  %104 = trunc i32 %103 to i8
  %105 = getelementptr inbounds [15 x i8], ptr %14, i64 0, i64 6
  store i8 %104, ptr %105, align 1, !tbaa !14
  %106 = load ptr, ptr %11, align 8, !tbaa !10
  %107 = getelementptr inbounds i8, ptr %106, i64 7
  %108 = load i8, ptr %107, align 1, !tbaa !14
  %109 = zext i8 %108 to i32
  %110 = load ptr, ptr %10, align 8, !tbaa !10
  %111 = getelementptr inbounds i8, ptr %110, i64 -1
  %112 = load i8, ptr %111, align 1, !tbaa !14
  %113 = zext i8 %112 to i32
  %114 = mul nsw i32 %113, 2
  %115 = add nsw i32 %109, %114
  %116 = load ptr, ptr %10, align 8, !tbaa !10
  %117 = getelementptr inbounds i8, ptr %116, i64 0
  %118 = load i8, ptr %117, align 1, !tbaa !14
  %119 = zext i8 %118 to i32
  %120 = add nsw i32 %115, %119
  %121 = add nsw i32 %120, 2
  %122 = ashr i32 %121, 2
  %123 = trunc i32 %122 to i8
  %124 = getelementptr inbounds [15 x i8], ptr %14, i64 0, i64 7
  store i8 %123, ptr %124, align 1, !tbaa !14
  %125 = load ptr, ptr %10, align 8, !tbaa !10
  %126 = getelementptr inbounds i8, ptr %125, i64 -1
  %127 = load i8, ptr %126, align 1, !tbaa !14
  %128 = zext i8 %127 to i32
  %129 = load ptr, ptr %10, align 8, !tbaa !10
  %130 = getelementptr inbounds i8, ptr %129, i64 0
  %131 = load i8, ptr %130, align 1, !tbaa !14
  %132 = zext i8 %131 to i32
  %133 = mul nsw i32 %132, 2
  %134 = add nsw i32 %128, %133
  %135 = load ptr, ptr %10, align 8, !tbaa !10
  %136 = getelementptr inbounds i8, ptr %135, i64 1
  %137 = load i8, ptr %136, align 1, !tbaa !14
  %138 = zext i8 %137 to i32
  %139 = add nsw i32 %134, %138
  %140 = add nsw i32 %139, 2
  %141 = ashr i32 %140, 2
  %142 = trunc i32 %141 to i8
  %143 = getelementptr inbounds [15 x i8], ptr %14, i64 0, i64 8
  store i8 %142, ptr %143, align 1, !tbaa !14
  store i32 0, ptr %13, align 4, !tbaa !15
  br label %144

144:                                              ; preds = %161, %86
  %145 = load i32, ptr %13, align 4, !tbaa !15
  %146 = icmp slt i32 %145, 8
  br i1 %146, label %147, label %164

147:                                              ; preds = %144
  %148 = load ptr, ptr %9, align 8, !tbaa !10
  %149 = load i32, ptr %13, align 4, !tbaa !15
  %150 = sext i32 %149 to i64
  %151 = load i64, ptr %6, align 8, !tbaa !12
  %152 = mul nsw i64 %150, %151
  %153 = getelementptr inbounds i8, ptr %148, i64 %152
  %154 = getelementptr inbounds [15 x i8], ptr %14, i64 0, i64 0
  %155 = getelementptr inbounds i8, ptr %154, i64 8
  %156 = getelementptr inbounds i8, ptr %155, i64 -1
  %157 = load i32, ptr %13, align 4, !tbaa !15
  %158 = sext i32 %157 to i64
  %159 = sub i64 0, %158
  %160 = getelementptr inbounds i8, ptr %156, i64 %159
  call void @llvm.memcpy.p0.p0.i64(ptr align 1 %153, ptr align 1 %160, i64 8, i1 false)
  br label %161

161:                                              ; preds = %147
  %162 = load i32, ptr %13, align 4, !tbaa !15
  %163 = add nsw i32 %162, 1
  store i32 %163, ptr %13, align 4, !tbaa !15
  br label %144, !llvm.loop !25

164:                                              ; preds = %144
  call void @llvm.lifetime.end.p0(i64 15, ptr %14) #10
  call void @llvm.lifetime.end.p0(i64 4, ptr %13) #10
  call void @llvm.lifetime.end.p0(i64 4, ptr %12) #10
  call void @llvm.lifetime.end.p0(i64 8, ptr %11) #10
  call void @llvm.lifetime.end.p0(i64 8, ptr %10) #10
  call void @llvm.lifetime.end.p0(i64 8, ptr %9) #10
  ret void
}